target datalayout = "e-m:e-p270:32:32-p271:32:32-p272:64:64-i64:64-i128:128-f80:128-n8:16:32:64-S128"
target triple = "x86_64-pc-linux-gnu"

%struct.Vmem = type { ptr, i64, i64 }
%struct.Expr_ = type { ptr, %union.SourceSpan, i16, %union.anon.29 }
%union.SourceSpan = type { i64 }
%union.anon.29 = type { %struct.ExprAnySwitch }
%struct.ExprAnySwitch = type { i8, %union.anon.31 }
%union.anon.31 = type { %struct.anon.32 }
%struct.anon.32 = type { ptr, %union.SourceSpan, ptr }
%struct.Type_ = type { i32, ptr, ptr, ptr, %union.anon.85, ptr, ptr, %union.anon.87 }
%union.anon.85 = type { ptr }
%union.anon.87 = type { %struct.TypeFunction }
%struct.TypeFunction = type { ptr, ptr, ptr }
%struct.Decl_ = type { ptr, ptr, %union.SourceSpan, i64, %union.anon, i32, %union.anon.0, i64, ptr, ptr, ptr, %union.anon.1 }
%union.anon = type { ptr }
%union.anon.0 = type { i16 }
%union.anon.1 = type { %struct.FuncDecl }
%struct.FuncDecl = type { i32, [4 x i8], %struct.Signature_, i32, i32, %union.anon.8 }
%struct.Signature_ = type <{ %struct.CalleeAttributes, i16, i8, i32, i32, [4 x i8], ptr }>
%struct.CalleeAttributes = type { i8 }
%union.anon.8 = type { %struct.anon.9 }
%struct.anon.9 = type { i16, %union.anon.10 }
%union.anon.10 = type { ptr }
%struct.anon.2 = type { ptr, ptr, %union.anon.3 }
%union.anon.3 = type { %struct.BitStructDecl }
%struct.BitStructDecl = type { ptr, ptr, i8 }
%struct.TypeInfo_ = type { i16, ptr, %union.SourceSpan, %union.anon.56 }
%union.anon.56 = type { %struct.anon.57 }
%struct.anon.57 = type { ptr, ptr }
%struct.ExprConst = type { i16, %union.anon.38 }
%union.anon.38 = type { %struct.Int }
%struct.Int = type { %struct.Int128_, i32 }
%struct.Int128_ = type { i64, i64 }
%struct.Float = type { double, i32 }
%struct.ExprCast = type { i8, i32, i32 }

@.str.2 = private unnamed_addr constant [36 x i8] c"FATAL ERROR %s -> in %s @ in %s:%d \00", align 1
@.str.3 = private unnamed_addr constant [22 x i8] c"Should be unreachable\00", align 1
@__func__.type_flatten = private unnamed_addr constant [13 x i8] c"type_flatten\00", align 1
@.str.10 = private unnamed_addr constant [118 x i8] c"generated/home/dtcxzyw/WorkSpace/Projects/compilers/llvm-opt-benchmark/bench/c3c/c3c/src/compiler/compiler_internal.h\00", align 1
@expr_arena = external global %struct.Vmem, align 8

; Function Attrs: nounwind uwtable
define internal ptr @expr_calloc() #0 {
  %1 = call ptr @vmem_alloc(ptr noundef @expr_arena, i64 noundef 56)
  ret ptr %1
}

; Function Attrs: nounwind uwtable
define internal i32 @exprid(ptr noundef %0) #0 {
  %2 = alloca ptr, align 8
  store ptr %0, ptr %2, align 8
  %3 = load ptr, ptr %2, align 8
  %4 = load ptr, ptr @expr_arena, align 8
  %5 = ptrtoint ptr %3 to i64
  %6 = ptrtoint ptr %4 to i64
  %7 = sub i64 %5, %6
  %8 = sdiv exact i64 %7, 56
  %9 = trunc i64 %8 to i32
  ret i32 %9
}

; Function Attrs: nounwind uwtable
define internal ptr @expr_copy(ptr noundef %0) #0 {
  %2 = alloca ptr, align 8
  %3 = alloca ptr, align 8
  store ptr %0, ptr %2, align 8
  %4 = call ptr @expr_calloc()
  store ptr %4, ptr %3, align 8
  %5 = load ptr, ptr %3, align 8
  %6 = load ptr, ptr %2, align 8
  call void @llvm.memcpy.p0.p0.i64(ptr align 8 %5, ptr align 8 %6, i64 56, i1 false)
  %7 = load ptr, ptr %3, align 8
  ret ptr %7
}

; Function Attrs: nounwind uwtable
define internal ptr @type_flatten(ptr noundef %0) #0 {
  %2 = alloca ptr, align 8
  store ptr %0, ptr %2, align 8
  br label %3

3:                                                ; preds = %28, %1
  %4 = load ptr, ptr %2, align 8
  %5 = getelementptr inbounds %struct.Type_, ptr %4, i32 0, i32 1
  %6 = load ptr, ptr %5, align 8
  store ptr %6, ptr %2, align 8
  %7 = load ptr, ptr %2, align 8
  %8 = getelementptr inbounds %struct.Type_, ptr %7, i32 0, i32 0
  %9 = load i32, ptr %8, align 8
  switch i32 %9, label %26 [
    i32 32, label %10
    i32 40, label %19
    i32 31, label %23
  ]

10:                                               ; preds = %3
  %11 = load ptr, ptr %2, align 8
  %12 = getelementptr inbounds %struct.Type_, ptr %11, i32 0, i32 7
  %13 = load ptr, ptr %12, align 8
  %14 = getelementptr inbounds %struct.Decl_, ptr %13, i32 0, i32 11
  %15 = getelementptr inbounds %struct.anon.2, ptr %14, i32 0, i32 2
  %16 = load ptr, ptr %15, align 8
  %17 = getelementptr inbounds %struct.TypeInfo_, ptr %16, i32 0, i32 1
  %18 = load ptr, ptr %17, align 8
  store ptr %18, ptr %2, align 8
  br label %28

19:                                               ; preds = %3
  %20 = load ptr, ptr %2, align 8
  %21 = getelementptr inbounds %struct.Type_, ptr %20, i32 0, i32 7
  %22 = load ptr, ptr %21, align 8
  store ptr %22, ptr %2, align 8
  br label %28

23:                                               ; preds = %3
  br label %24

24:                                               ; preds = %23
  call void (ptr, ...) @error_exit(ptr noundef @.str.2, ptr noundef @.str.3, ptr noundef @__func__.type_flatten, ptr noundef @.str.10, i32 noundef 2984) #6
  unreachable

25:                                               ; No predecessors!
  br label %26

26:                                               ; preds = %25, %3
  %27 = load ptr, ptr %2, align 8
  ret ptr %27

28:                                               ; preds = %19, %10
  br label %3
}

; Function Attrs: nounwind uwtable
define internal zeroext i1 @insert_runtime_cast(ptr noundef %0, i32 noundef %1, ptr noundef %2) #0 {
  %4 = alloca ptr, align 8
  %5 = alloca i32, align 4
  %6 = alloca ptr, align 8
  %7 = alloca ptr, align 8
  store ptr %0, ptr %4, align 8
  store i32 %1, ptr %5, align 4
  store ptr %2, ptr %6, align 8
  %8 = load ptr, ptr %4, align 8
  %9 = call ptr @expr_copy(ptr noundef %8)
  store ptr %9, ptr %7, align 8
  %10 = load ptr, ptr %4, align 8
  %11 = getelementptr inbounds %struct.Expr_, ptr %10, i32 0, i32 2
  %12 = load i16, ptr %11, align 8
  %13 = and i16 %12, -256
  %14 = or i16 %13, 9
  store i16 %14, ptr %11, align 8
  %15 = load i32, ptr %5, align 4
  %16 = load ptr, ptr %4, align 8
  %17 = getelementptr inbounds %struct.Expr_, ptr %16, i32 0, i32 3
  %18 = trunc i32 %15 to i8
  store i8 %18, ptr %17, align 8
  %19 = load ptr, ptr %7, align 8
  %20 = call i32 @exprid(ptr noundef %19)
  %21 = load ptr, ptr %4, align 8
  %22 = getelementptr inbounds %struct.Expr_, ptr %21, i32 0, i32 3
  %23 = getelementptr inbounds %struct.ExprCast, ptr %22, i32 0, i32 1
  store i32 %20, ptr %23, align 4
  %24 = load ptr, ptr %4, align 8
  %25 = getelementptr inbounds %struct.Expr_, ptr %24, i32 0, i32 3
  %26 = getelementptr inbounds %struct.ExprCast, ptr %25, i32 0, i32 2
  store i32 0, ptr %26, align 8
  %27 = load ptr, ptr %6, align 8
  %28 = load ptr, ptr %4, align 8
  %29 = getelementptr inbounds %struct.Expr_, ptr %28, i32 0, i32 0
  store ptr %27, ptr %29, align 8
  ret i1 true
}

; Function Attrs: nounwind uwtable
define internal void @cast_float_to_float(ptr noundef %0, ptr noundef %1, ptr noundef %2) #0 {
  %4 = alloca ptr, align 8
  %5 = alloca ptr, align 8
  %6 = alloca double, align 8
  %7 = alloca i32, align 4
  %8 = alloca double, align 8
  %9 = alloca %struct.ExprConst, align 8
  %10 = alloca ptr, align 8
  %11 = alloca i1, align 1
  %12 = alloca ptr, align 8
  %13 = alloca i32, align 4
  %14 = alloca ptr, align 8
  %15 = alloca ptr, align 8
  %16 = alloca ptr, align 8
  %17 = alloca ptr, align 8
  store ptr %0, ptr %15, align 8
  store ptr %1, ptr %16, align 8
  store ptr %2, ptr %17, align 8
  %18 = load ptr, ptr %16, align 8
  %19 = load ptr, ptr %17, align 8
  store ptr %18, ptr %12, align 8
  store i32 17, ptr %13, align 4
  store ptr %19, ptr %14, align 8
  %20 = load ptr, ptr %12, align 8
  store ptr %20, ptr %10, align 8
  %21 = load ptr, ptr %10, align 8
  %22 = getelementptr inbounds %struct.Expr_, ptr %21, i32 0, i32 2
  %23 = load i16, ptr %22, align 8
  %24 = and i16 %23, 255
  %25 = zext i16 %24 to i32
  %26 = icmp eq i32 %25, 14
  br i1 %26, label %27, label %35

27:                                               ; preds = %3
  %28 = load ptr, ptr %12, align 8
  %29 = getelementptr inbounds %struct.Expr_, ptr %28, i32 0, i32 3
  %30 = load i16, ptr %29, align 8
  %31 = and i16 %30, 255
  %32 = zext i16 %31 to i32
  %33 = icmp ne i32 %32, 8
  br i1 %33, label %34, label %35

34:                                               ; preds = %27
  store i1 false, ptr %11, align 1
  br label %40

35:                                               ; preds = %27, %3
  %36 = load ptr, ptr %12, align 8
  %37 = load i32, ptr %13, align 4
  %38 = load ptr, ptr %14, align 8
  %39 = call zeroext i1 @insert_runtime_cast(ptr noundef %36, i32 noundef %37, ptr noundef %38)
  store i1 %39, ptr %11, align 1
  br label %40

40:                                               ; preds = %35, %34
  %41 = load i1, ptr %11, align 1
  br i1 %41, label %42, label %43

42:                                               ; preds = %40
  br label %88

43:                                               ; preds = %40
  %44 = load ptr, ptr %16, align 8
  %45 = load ptr, ptr %17, align 8
  %46 = load ptr, ptr %16, align 8
  %47 = getelementptr inbounds %struct.Expr_, ptr %46, i32 0, i32 3
  %48 = getelementptr inbounds %struct.ExprConst, ptr %47, i32 0, i32 1
  %49 = getelementptr inbounds %struct.Float, ptr %48, i32 0, i32 0
  %50 = load double, ptr %49, align 8
  store ptr %44, ptr %4, align 8
  store ptr %45, ptr %5, align 8
  store double %50, ptr %6, align 8
  %51 = load ptr, ptr %4, align 8
  %52 = getelementptr inbounds %struct.Expr_, ptr %51, i32 0, i32 2
  %53 = load i16, ptr %52, align 8
  %54 = and i16 %53, -256
  %55 = or i16 %54, 14
  store i16 %55, ptr %52, align 8
  %56 = load ptr, ptr %5, align 8
  %57 = load ptr, ptr %4, align 8
  store ptr %56, ptr %57, align 8
  %58 = load ptr, ptr %5, align 8
  %59 = call ptr @type_flatten(ptr noundef %58)
  %60 = load i32, ptr %59, align 8
  store i32 %60, ptr %7, align 4
  %61 = load i32, ptr %7, align 4
  switch i32 %61, label %68 [
    i32 15, label %62
    i32 16, label %66
  ]

62:                                               ; preds = %43
  %63 = load double, ptr %6, align 8
  %64 = fptrunc double %63 to float
  %65 = fpext float %64 to double
  store double %65, ptr %8, align 8
  br label %70

66:                                               ; preds = %43
  %67 = load double, ptr %6, align 8
  store double %67, ptr %8, align 8
  br label %70

68:                                               ; preds = %43
  %69 = load double, ptr %6, align 8
  store double %69, ptr %8, align 8
  br label %70

70:                                               ; preds = %68, %66, %62
  %71 = load ptr, ptr %4, align 8
  %72 = getelementptr inbounds %struct.Expr_, ptr %71, i32 0, i32 3
  %73 = load i16, ptr %9, align 8
  %74 = and i16 %73, -256
  store i16 %74, ptr %9, align 8
  %75 = load i16, ptr %9, align 8
  %76 = and i16 %75, -257
  store i16 %76, ptr %9, align 8
  %77 = load i16, ptr %9, align 8
  %78 = and i16 %77, -513
  store i16 %78, ptr %9, align 8
  %79 = getelementptr inbounds %struct.ExprConst, ptr %9, i32 0, i32 1
  %80 = load double, ptr %8, align 8
  store double %80, ptr %79, align 8
  %81 = getelementptr inbounds %struct.Float, ptr %79, i32 0, i32 1
  %82 = load i32, ptr %7, align 4
  store i32 %82, ptr %81, align 8
  call void @llvm.memcpy.p0.p0.i64(ptr align 8 %72, ptr align 8 %9, i64 32, i1 false)
  %83 = load ptr, ptr %4, align 8
  %84 = getelementptr inbounds %struct.Expr_, ptr %83, i32 0, i32 2
  %85 = load i16, ptr %84, align 8
  %86 = and i16 %85, -3841
  %87 = or i16 %86, 512
  store i16 %87, ptr %84, align 8
  br label %88

88:                                               ; preds = %70, %42
  ret void
}