; Function Attrs: nounwind uwtable
define internal void @cast_float_to_float(ptr nocapture readnone %0, ptr nocapture noundef %1, ptr noundef %2) #0 {
  %4 = getelementptr inbounds i8, ptr %1, i64 16
  %5 = load i16, ptr %4, align 8
  %6 = and i16 %5, 255
  %7 = icmp eq i16 %6, 14
  br i1 %7, label %8, label %.critedge

8:                                                ; preds = %3
  %9 = getelementptr inbounds i8, ptr %1, i64 24
  %10 = load i16, ptr %9, align 8
  %11 = and i16 %10, 255
  %.not = icmp eq i16 %11, 8
  br i1 %.not, label %.critedge, label %25

.critedge:                                        ; preds = %8, %3
  %12 = tail call noundef ptr @vmem_alloc(ptr noundef nonnull @expr_arena, i64 noundef 56) #10
  tail call void @llvm.memcpy.p0.p0.i64(ptr noundef nonnull align 8 dereferenceable(56) %12, ptr noundef nonnull align 8 dereferenceable(56) %1, i64 56, i1 false)
  %13 = load i16, ptr %4, align 8
  %14 = and i16 %13, -256
  %15 = or disjoint i16 %14, 9
  store i16 %15, ptr %4, align 8
  %16 = getelementptr inbounds i8, ptr %1, i64 24
  store i8 17, ptr %16, align 8
  %17 = load ptr, ptr @expr_arena, align 8
  %18 = ptrtoint ptr %12 to i64
  %19 = ptrtoint ptr %17 to i64
  %20 = sub i64 %18, %19
  %21 = sdiv exact i64 %20, 56
  %22 = trunc i64 %21 to i32
  %23 = getelementptr inbounds i8, ptr %1, i64 28
  store i32 %22, ptr %23, align 4
  %24 = getelementptr inbounds i8, ptr %1, i64 32
  store i32 0, ptr %24, align 8
  store ptr %2, ptr %1, align 8
  br label %46

25:                                               ; preds = %8
  %26 = getelementptr inbounds i8, ptr %1, i64 32
  %27 = load double, ptr %26, align 8
  store ptr %2, ptr %1, align 8
  br label %28

28:                                               ; preds = %41, %25
  %.0.i = phi ptr [ %2, %25 ], [ %.1.i, %41 ]
  %29 = getelementptr inbounds i8, ptr %.0.i, i64 8
  %30 = load ptr, ptr %29, align 8
  %31 = load i32, ptr %30, align 8
  switch i32 %31, label %type_flatten.exit [
    i32 32, label %32
    i32 40, label %38
    i32 31, label %40
  ]

32:                                               ; preds = %28
  %33 = getelementptr inbounds i8, ptr %30, i64 56
  %34 = load ptr, ptr %33, align 8
  %35 = getelementptr inbounds i8, ptr %34, i64 96
  %36 = load ptr, ptr %35, align 8
  %37 = getelementptr inbounds i8, ptr %36, i64 8
  br label %41

38:                                               ; preds = %28
  %39 = getelementptr inbounds i8, ptr %30, i64 56
  br label %41

40:                                               ; preds = %28
  tail call void (ptr, ...) @error_exit(ptr noundef nonnull @.str.2, ptr noundef nonnull @.str.3, ptr noundef nonnull @__func__.type_flatten, ptr noundef nonnull @.str.10, i32 noundef 2984) #11
  unreachable

41:                                               ; preds = %38, %32
  %.1.in.i = phi ptr [ %39, %38 ], [ %37, %32 ]
  %.1.i = load ptr, ptr %.1.in.i, align 8
  br label %28

type_flatten.exit:                                ; preds = %28
  %cond = icmp eq i32 %31, 15
  %42 = fptrunc double %27 to float
  %43 = fpext float %42 to double
  %.0 = select i1 %cond, double %43, double %27
  store i16 0, ptr %9, align 8
  store double %.0, ptr %26, align 8
  %.sroa.8.0..sroa_idx = getelementptr inbounds i8, ptr %1, i64 40
  store i32 %31, ptr %.sroa.8.0..sroa_idx, align 8
  %44 = and i16 %5, -4082
  %45 = or disjoint i16 %44, 512
  store i16 %45, ptr %4, align 8
  br label %46

46:                                               ; preds = %.critedge, %type_flatten.exit
  ret void
}